target datalayout = "e-m:e-p270:32:32-p271:32:32-p272:64:64-i64:64-i128:128-f80:128-n8:16:32:64-S128"
target triple = "x86_64-pc-linux-gnu"

%struct.PJconsts = type { ptr, ptr, ptr, ptr, ptr, ptr, ptr, ptr, ptr, ptr, ptr, ptr, i32, ptr, ptr, ptr, ptr, ptr, ptr, ptr, ptr, double, double, double, double, double, double, double, double, double, double, double, double, double, double, double, double, double, double, double, double, double, double, i32, i32, i32, i32, i32, i32, i32, i32, i32, i32, i32, ptr, ptr, ptr, ptr, ptr, ptr, double, double, double, double, double, double, double, double, double, double, double, i32, [7 x double], i32, ptr, ptr, double, double, i32, [4 x i8], %"class.std::shared_ptr", i8, double, i8, %"class.std::__cxx11::basic_string", %"class.std::__cxx11::basic_string", %"class.std::__cxx11::basic_string", i8, %"class.std::vector", i32, %"class.std::vector.3", i32, i8, i8, i8, ptr }
%"class.std::shared_ptr" = type { %"class.std::__shared_ptr" }
%"class.std::__shared_ptr" = type { ptr, %"class.std::__shared_count" }
%"class.std::__shared_count" = type { ptr }
%"class.std::__cxx11::basic_string" = type { %"struct.std::__cxx11::basic_string<char>::_Alloc_hider", i64, %union.anon }
%"struct.std::__cxx11::basic_string<char>::_Alloc_hider" = type { ptr }
%union.anon = type { i64, [8 x i8] }
%"class.std::vector" = type { %"struct.std::_Vector_base" }
%"struct.std::_Vector_base" = type { %"struct.std::_Vector_base<osgeo::proj::operation::GridDescription, std::allocator<osgeo::proj::operation::GridDescription>>::_Vector_impl" }
%"struct.std::_Vector_base<osgeo::proj::operation::GridDescription, std::allocator<osgeo::proj::operation::GridDescription>>::_Vector_impl" = type { %"struct.std::_Vector_base<osgeo::proj::operation::GridDescription, std::allocator<osgeo::proj::operation::GridDescription>>::_Vector_impl_data" }
%"struct.std::_Vector_base<osgeo::proj::operation::GridDescription, std::allocator<osgeo::proj::operation::GridDescription>>::_Vector_impl_data" = type { ptr, ptr, ptr }
%"class.std::vector.3" = type { %"struct.std::_Vector_base.4" }
%"struct.std::_Vector_base.4" = type { %"struct.std::_Vector_base<PJCoordOperation, std::allocator<PJCoordOperation>>::_Vector_impl" }
%"struct.std::_Vector_base<PJCoordOperation, std::allocator<PJCoordOperation>>::_Vector_impl" = type { %"struct.std::_Vector_base<PJCoordOperation, std::allocator<PJCoordOperation>>::_Vector_impl_data" }
%"struct.std::_Vector_base<PJCoordOperation, std::allocator<PJCoordOperation>>::_Vector_impl_data" = type { ptr, ptr, ptr }
%"struct.(anonymous namespace)::pj_sts" = type { double, double, double, i32 }
%struct.PJ_LP = type { double, double }
%struct.PJ_XY = type { double, double }

; Function Attrs: mustprogress nounwind uwtable
define internal { double, double } @_ZL13sts_s_forward5PJ_LPP8PJconsts(double %0, double %1, ptr noundef %2) #4 {
  %4 = alloca %struct.PJ_XY, align 8
  %5 = alloca %struct.PJ_LP, align 8
  %6 = alloca ptr, align 8
  %7 = alloca ptr, align 8
  %8 = alloca double, align 8
  %9 = getelementptr inbounds nuw { double, double }, ptr %5, i32 0, i32 0
  store double %0, ptr %9, align 8
  %10 = getelementptr inbounds nuw { double, double }, ptr %5, i32 0, i32 1
  store double %1, ptr %10, align 8
  store ptr %2, ptr %6, align 8, !tbaa !3
  call void @llvm.memset.p0.i64(ptr align 8 %4, i8 0, i64 16, i1 false)
  call void @llvm.lifetime.start.p0(i64 8, ptr %7) #7
  %11 = load ptr, ptr %6, align 8, !tbaa !3
  %12 = getelementptr inbounds nuw %struct.PJconsts, ptr %11, i32 0, i32 11
  %13 = load ptr, ptr %12, align 8, !tbaa !43
  store ptr %13, ptr %7, align 8, !tbaa !41
  %14 = load ptr, ptr %7, align 8, !tbaa !41
  %15 = getelementptr inbounds nuw %"struct.(anonymous namespace)::pj_sts", ptr %14, i32 0, i32 0
  %16 = load double, ptr %15, align 8, !tbaa !49
  %17 = getelementptr inbounds nuw %struct.PJ_LP, ptr %5, i32 0, i32 0
  %18 = load double, ptr %17, align 8, !tbaa !60
  %19 = fmul double %16, %18
  %20 = getelementptr inbounds nuw %struct.PJ_LP, ptr %5, i32 0, i32 1
  %21 = load double, ptr %20, align 8, !tbaa !57
  %22 = call double @cos(double noundef %21) #7, !tbaa !45
  %23 = fmul double %19, %22
  %24 = getelementptr inbounds nuw %struct.PJ_XY, ptr %4, i32 0, i32 0
  store double %23, ptr %24, align 8, !tbaa !59
  %25 = load ptr, ptr %7, align 8, !tbaa !41
  %26 = getelementptr inbounds nuw %"struct.(anonymous namespace)::pj_sts", ptr %25, i32 0, i32 1
  %27 = load double, ptr %26, align 8, !tbaa !51
  %28 = getelementptr inbounds nuw %struct.PJ_XY, ptr %4, i32 0, i32 1
  store double %27, ptr %28, align 8, !tbaa !54
  %29 = load ptr, ptr %7, align 8, !tbaa !41
  %30 = getelementptr inbounds nuw %"struct.(anonymous namespace)::pj_sts", ptr %29, i32 0, i32 2
  %31 = load double, ptr %30, align 8, !tbaa !52
  %32 = getelementptr inbounds nuw %struct.PJ_LP, ptr %5, i32 0, i32 1
  %33 = load double, ptr %32, align 8, !tbaa !57
  %34 = fmul double %33, %31
  store double %34, ptr %32, align 8, !tbaa !57
  call void @llvm.lifetime.start.p0(i64 8, ptr %8) #7
  %35 = getelementptr inbounds nuw %struct.PJ_LP, ptr %5, i32 0, i32 1
  %36 = load double, ptr %35, align 8, !tbaa !57
  %37 = call double @cos(double noundef %36) #7, !tbaa !45
  store double %37, ptr %8, align 8, !tbaa !44
  %38 = load ptr, ptr %7, align 8, !tbaa !41
  %39 = getelementptr inbounds nuw %"struct.(anonymous namespace)::pj_sts", ptr %38, i32 0, i32 3
  %40 = load i32, ptr %39, align 8, !tbaa !53
  %41 = icmp ne i32 %40, 0
  br i1 %41, label %42, label %55

42:                                               ; preds = %3
  %43 = load double, ptr %8, align 8, !tbaa !44
  %44 = load double, ptr %8, align 8, !tbaa !44
  %45 = fmul double %43, %44
  %46 = getelementptr inbounds nuw %struct.PJ_XY, ptr %4, i32 0, i32 0
  %47 = load double, ptr %46, align 8, !tbaa !59
  %48 = fmul double %47, %45
  store double %48, ptr %46, align 8, !tbaa !59
  %49 = getelementptr inbounds nuw %struct.PJ_LP, ptr %5, i32 0, i32 1
  %50 = load double, ptr %49, align 8, !tbaa !57
  %51 = call double @tan(double noundef %50) #7, !tbaa !45
  %52 = getelementptr inbounds nuw %struct.PJ_XY, ptr %4, i32 0, i32 1
  %53 = load double, ptr %52, align 8, !tbaa !54
  %54 = fmul double %53, %51
  store double %54, ptr %52, align 8, !tbaa !54
  br label %66

55:                                               ; preds = %3
  %56 = load double, ptr %8, align 8, !tbaa !44
  %57 = getelementptr inbounds nuw %struct.PJ_XY, ptr %4, i32 0, i32 0
  %58 = load double, ptr %57, align 8, !tbaa !59
  %59 = fdiv double %58, %56
  store double %59, ptr %57, align 8, !tbaa !59
  %60 = getelementptr inbounds nuw %struct.PJ_LP, ptr %5, i32 0, i32 1
  %61 = load double, ptr %60, align 8, !tbaa !57
  %62 = call double @sin(double noundef %61) #7, !tbaa !45
  %63 = getelementptr inbounds nuw %struct.PJ_XY, ptr %4, i32 0, i32 1
  %64 = load double, ptr %63, align 8, !tbaa !54
  %65 = fmul double %64, %62
  store double %65, ptr %63, align 8, !tbaa !54
  br label %66

66:                                               ; preds = %55, %42
  call void @llvm.lifetime.end.p0(i64 8, ptr %8) #7
  call void @llvm.lifetime.end.p0(i64 8, ptr %7) #7
  %67 = load { double, double }, ptr %4, align 8
  ret { double, double } %67
}