; Function Attrs: mustprogress nofree nounwind willreturn memory(readwrite, inaccessiblemem: write) uwtable
define internal { double, double } @_ZL13sts_s_forward5PJ_LPP8PJconsts(double %0, double %1, ptr noundef readonly captures(none) %2) #3 {
  %4 = getelementptr inbounds nuw i8, ptr %2, i64 88
  %5 = load ptr, ptr %4, align 8, !tbaa !3
  %6 = load double, ptr %5, align 8, !tbaa !39
  %7 = fmul double %0, %6
  %8 = tail call double @cos(double noundef %1) #6, !tbaa !49
  %9 = fmul double %7, %8
  %10 = getelementptr inbounds nuw i8, ptr %5, i64 8
  %11 = load double, ptr %10, align 8, !tbaa !41
  %12 = getelementptr inbounds nuw i8, ptr %5, i64 16
  %13 = load double, ptr %12, align 8, !tbaa !42
  %14 = fmul double %1, %13
  %15 = tail call double @cos(double noundef %14) #6, !tbaa !49
  %16 = getelementptr inbounds nuw i8, ptr %5, i64 24
  %17 = load i32, ptr %16, align 8, !tbaa !43
  %.not = icmp eq i32 %17, 0
  br i1 %.not, label %22, label %18

18:                                               ; preds = %3
  %19 = fmul double %15, %15
  %20 = fmul double %9, %19
  %21 = tail call double @tan(double noundef %14) #6, !tbaa !49
  br label %25

22:                                               ; preds = %3
  %23 = fdiv double %9, %15
  %24 = tail call double @sin(double noundef %14) #6, !tbaa !49
  br label %25

25:                                               ; preds = %22, %18
  %.pn = phi double [ %21, %18 ], [ %24, %22 ]
  %.sroa.012.0 = phi double [ %20, %18 ], [ %23, %22 ]
  %.sroa.7.0 = fmul double %11, %.pn
  %.fca.0.insert = insertvalue { double, double } poison, double %.sroa.012.0, 0
  %.fca.1.insert = insertvalue { double, double } %.fca.0.insert, double %.sroa.7.0, 1
  ret { double, double } %.fca.1.insert
}